target datalayout = "e-m:e-p270:32:32-p271:32:32-p272:64:64-i64:64-i128:128-f80:128-n8:16:32:64-S128"
target triple = "x86_64-pc-linux-gnu"

%struct.lua_State = type { ptr, i8, i8, i8, ptr, ptr, ptr, ptr, ptr, ptr, ptr, ptr, ptr, i32, i32, i16, i16, i8, i8, i32, i32, ptr, %struct.lua_TValue, %struct.lua_TValue, ptr, ptr, ptr, i64 }
%struct.lua_TValue = type { %union.Value, i32 }
%union.Value = type { ptr }
%struct.global_State = type { %struct.stringtable, ptr, ptr, i8, i8, i32, ptr, ptr, ptr, ptr, ptr, ptr, %struct.Mbuffer, i64, i64, i64, i64, i32, i32, ptr, %struct.lua_TValue, ptr, %struct.UpVal, [9 x ptr], [17 x ptr] }
%struct.stringtable = type { ptr, i32, i32 }
%struct.Mbuffer = type { ptr, i64, i64 }
%struct.UpVal = type { ptr, i8, i8, ptr, %union.anon }
%union.anon = type { %struct.lua_TValue }

@.str.10 = private unnamed_addr constant [15 x i8] c"tcache.destroy\00", align 1

; Function Attrs: nounwind uwtable
define dso_local void @freeLuaScriptsSync(ptr noundef %0, ptr noundef %1, ptr noundef %2) #0 {
  %4 = alloca ptr, align 8
  %5 = alloca ptr, align 8
  %6 = alloca ptr, align 8
  %7 = alloca ptr, align 8
  %8 = alloca i32, align 4
  store ptr %0, ptr %4, align 8, !tbaa !9
  store ptr %1, ptr %5, align 8, !tbaa !81
  store ptr %2, ptr %6, align 8, !tbaa !24
  %9 = load ptr, ptr %4, align 8, !tbaa !9
  call void @dictRelease(ptr noundef %9)
  %10 = load ptr, ptr %5, align 8, !tbaa !81
  call void @listRelease(ptr noundef %10)
  call void @llvm.lifetime.start.p0(i64 8, ptr %7) #14
  %11 = load ptr, ptr %6, align 8, !tbaa !24
  %12 = getelementptr inbounds nuw %struct.lua_State, ptr %11, i32 0, i32 6
  %13 = load ptr, ptr %12, align 8, !tbaa !82
  %14 = getelementptr inbounds nuw %struct.global_State, ptr %13, i32 0, i32 2
  %15 = load ptr, ptr %14, align 8, !tbaa !92
  store ptr %15, ptr %7, align 8, !tbaa !5
  call void @llvm.lifetime.start.p0(i64 4, ptr %8) #14
  %16 = load ptr, ptr %7, align 8, !tbaa !5
  %17 = ptrtoint ptr %16 to i64
  %18 = trunc i64 %17 to i32
  store i32 %18, ptr %8, align 4, !tbaa !19
  %19 = load ptr, ptr %6, align 8, !tbaa !24
  %20 = call i32 @lua_gc(ptr noundef %19, i32 noundef 2, i32 noundef 0)
  %21 = load ptr, ptr %6, align 8, !tbaa !24
  call void @lua_close(ptr noundef %21)
  %22 = call i32 @je_mallctl(ptr noundef @.str.10, ptr noundef null, ptr noundef null, ptr noundef %8, i64 noundef 4) #14
  call void @llvm.lifetime.end.p0(i64 4, ptr %8) #14
  call void @llvm.lifetime.end.p0(i64 8, ptr %7) #14
  ret void
}