; Function Attrs: nounwind uwtable
define dso_local void @freeLuaScriptsSync(ptr noundef %0, ptr noundef %1, ptr noundef %2) local_unnamed_addr #0 {
  %4 = alloca i32, align 4
  tail call void @dictRelease(ptr noundef %0) #19
  tail call void @listRelease(ptr noundef %1) #19
  %5 = getelementptr inbounds nuw i8, ptr %2, i64 32
  %6 = load ptr, ptr %5, align 8, !tbaa !75
  %7 = getelementptr inbounds nuw i8, ptr %6, i64 24
  %8 = load ptr, ptr %7, align 8, !tbaa !85
  call void @llvm.lifetime.start.p0(i64 4, ptr nonnull %4) #19
  %9 = ptrtoint ptr %8 to i64
  %10 = trunc i64 %9 to i32
  store i32 %10, ptr %4, align 4, !tbaa !91
  %11 = tail call i32 @lua_gc(ptr noundef %2, i32 noundef 2, i32 noundef 0) #19
  tail call void @lua_close(ptr noundef %2) #19
  %12 = call i32 @je_mallctl(ptr noundef nonnull @.str.10, ptr noundef null, ptr noundef null, ptr noundef nonnull %4, i64 noundef 4) #19
  call void @llvm.lifetime.end.p0(i64 4, ptr nonnull %4) #19
  ret void
}